target datalayout = "e-m:e-p270:32:32-p271:32:32-p272:64:64-i64:64-i128:128-f80:128-n8:16:32:64-S128"
target triple = "x86_64-unknown-linux-gnu"

%"class.QuantLib::BinomialTree" = type { %"class.QuantLib::Tree", double, double, double }
%"class.QuantLib::Tree" = type { i64 }
%"class.QuantLib::EqualProbabilitiesBinomialTree" = type { %"class.QuantLib::BinomialTree", double }
%"class.boost::shared_ptr.6" = type { ptr, %"class.boost::detail::shared_count" }
%"class.boost::detail::shared_count" = type { ptr }

@.str.8 = private unnamed_addr constant [8 x i8] c"px != 0\00", align 1
@.str.9 = private unnamed_addr constant [102 x i8] c"generated/home/dtcxzyw/WorkSpace/SDK/vcpkg/installed/x64-linux/include/boost/smart_ptr/shared_ptr.hpp\00", align 1
@__PRETTY_FUNCTION__._ZNK5boost10shared_ptrIN8QuantLib19StochasticProcess1DEEptEv = private unnamed_addr constant [155 x i8] c"typename boost::detail::sp_member_access<T>::type boost::shared_ptr<QuantLib::StochasticProcess1D>::operator->() const [T = QuantLib::StochasticProcess1D]\00", align 1

; Function Attrs: mustprogress nounwind uwtable
define linkonce_odr void @_ZN8QuantLib4TreeINS_10JarrowRuddEEC2Em(ptr noundef nonnull align 8 dereferenceable(8) %this, i64 noundef %columns) unnamed_addr #3 comdat align 2 {
entry:
  %this.addr = alloca ptr, align 8
  %columns.addr = alloca i64, align 8
  store ptr %this, ptr %this.addr, align 8, !tbaa !3
  store i64 %columns, ptr %columns.addr, align 8, !tbaa !9
  %this1 = load ptr, ptr %this.addr, align 8
  %columns_ = getelementptr inbounds nuw %"class.QuantLib::Tree", ptr %this1, i32 0, i32 0
  %0 = load i64, ptr %columns.addr, align 8, !tbaa !9
  store i64 %0, ptr %columns_, align 8, !tbaa !123
  ret void
}

; Function Attrs: mustprogress uwtable
define linkonce_odr void @_ZN8QuantLib12BinomialTreeINS_10JarrowRuddEEC2ERKN5boost10shared_ptrINS_19StochasticProcess1DEEEdm(ptr noundef nonnull align 8 dereferenceable(32) %this, ptr noundef nonnull align 8 dereferenceable(16) %process, double noundef %end, i64 noundef %steps) unnamed_addr #4 comdat align 2 {
entry:
  %this.addr = alloca ptr, align 8
  %process.addr = alloca ptr, align 8
  %end.addr = alloca double, align 8
  %steps.addr = alloca i64, align 8
  store ptr %this, ptr %this.addr, align 8, !tbaa !3
  store ptr %process, ptr %process.addr, align 8, !tbaa !3
  store double %end, ptr %end.addr, align 8, !tbaa !7
  store i64 %steps, ptr %steps.addr, align 8, !tbaa !9
  %this1 = load ptr, ptr %this.addr, align 8
  %0 = load i64, ptr %steps.addr, align 8, !tbaa !9
  %add = add i64 %0, 1
  call void @_ZN8QuantLib4TreeINS_10JarrowRuddEEC2Em(ptr noundef nonnull align 8 dereferenceable(8) %this1, i64 noundef %add)
  %x0_ = getelementptr inbounds nuw %"class.QuantLib::BinomialTree", ptr %this1, i32 0, i32 1
  %1 = load ptr, ptr %process.addr, align 8, !tbaa !3
  %call = call noundef ptr @_ZNK5boost10shared_ptrIN8QuantLib19StochasticProcess1DEEptEv(ptr noundef nonnull align 8 dereferenceable(16) %1)
  %vtable = load ptr, ptr %call, align 8, !tbaa !15
  %vfn = getelementptr inbounds ptr, ptr %vtable, i64 15
  %2 = load ptr, ptr %vfn, align 8
  %call2 = call noundef double %2(ptr noundef nonnull align 8 dereferenceable(144) %call)
  store double %call2, ptr %x0_, align 8, !tbaa !11
  %dt_ = getelementptr inbounds nuw %"class.QuantLib::BinomialTree", ptr %this1, i32 0, i32 3
  %3 = load double, ptr %end.addr, align 8, !tbaa !7
  %4 = load i64, ptr %steps.addr, align 8, !tbaa !9
  %conv = uitofp i64 %4 to double
  %div = fdiv double %3, %conv
  store double %div, ptr %dt_, align 8, !tbaa !14
  %5 = load ptr, ptr %process.addr, align 8, !tbaa !3
  %call3 = call noundef ptr @_ZNK5boost10shared_ptrIN8QuantLib19StochasticProcess1DEEptEv(ptr noundef nonnull align 8 dereferenceable(16) %5)
  %x0_4 = getelementptr inbounds nuw %"class.QuantLib::BinomialTree", ptr %this1, i32 0, i32 1
  %6 = load double, ptr %x0_4, align 8, !tbaa !11
  %vtable5 = load ptr, ptr %call3, align 8, !tbaa !15
  %vfn6 = getelementptr inbounds ptr, ptr %vtable5, i64 16
  %7 = load ptr, ptr %vfn6, align 8
  %call7 = call noundef double %7(ptr noundef nonnull align 8 dereferenceable(144) %call3, double noundef 0.000000e+00, double noundef %6)
  %dt_8 = getelementptr inbounds nuw %"class.QuantLib::BinomialTree", ptr %this1, i32 0, i32 3
  %8 = load double, ptr %dt_8, align 8, !tbaa !14
  %mul = fmul double %call7, %8
  %driftPerStep_ = getelementptr inbounds nuw %"class.QuantLib::BinomialTree", ptr %this1, i32 0, i32 2
  store double %mul, ptr %driftPerStep_, align 8, !tbaa !122
  ret void
}

; Function Attrs: mustprogress uwtable
define linkonce_odr noundef ptr @_ZNK5boost10shared_ptrIN8QuantLib19StochasticProcess1DEEptEv(ptr noundef nonnull align 8 dereferenceable(16) %this) #4 comdat align 2 {
entry:
  %this.addr = alloca ptr, align 8
  store ptr %this, ptr %this.addr, align 8, !tbaa !3
  %this1 = load ptr, ptr %this.addr, align 8
  %px = getelementptr inbounds nuw %"class.boost::shared_ptr.6", ptr %this1, i32 0, i32 0
  %0 = load ptr, ptr %px, align 8, !tbaa !19
  %cmp = icmp ne ptr %0, null
  %lnot = xor i1 %cmp, true
  %lnot2 = xor i1 %lnot, true
  %conv = zext i1 %lnot2 to i64
  %expval = call i64 @llvm.expect.i64(i64 %conv, i64 1)
  %tobool = icmp ne i64 %expval, 0
  br i1 %tobool, label %cond.true, label %cond.false

cond.true:                                        ; preds = %entry
  br label %cond.end

cond.false:                                       ; preds = %entry
  call void @_ZN5boost16assertion_failedEPKcS1_S1_l(ptr noundef @.str.8, ptr noundef @__PRETTY_FUNCTION__._ZNK5boost10shared_ptrIN8QuantLib19StochasticProcess1DEEptEv, ptr noundef @.str.9, i64 noundef 784)
  br label %cond.end

cond.end:                                         ; preds = %cond.false, %cond.true
  %px3 = getelementptr inbounds nuw %"class.boost::shared_ptr.6", ptr %this1, i32 0, i32 0
  %1 = load ptr, ptr %px3, align 8, !tbaa !19
  ret ptr %1
}

; Function Attrs: mustprogress uwtable
define linkonce_odr void @_ZN8QuantLib30EqualProbabilitiesBinomialTreeINS_10JarrowRuddEEC2ERKN5boost10shared_ptrINS_19StochasticProcess1DEEEdm(ptr noundef nonnull align 8 dereferenceable(40) %this, ptr noundef nonnull align 8 dereferenceable(16) %process, double noundef %end, i64 noundef %steps) unnamed_addr #4 comdat align 2 {
entry:
  %this.addr = alloca ptr, align 8
  %process.addr = alloca ptr, align 8
  %end.addr = alloca double, align 8
  %steps.addr = alloca i64, align 8
  store ptr %this, ptr %this.addr, align 8, !tbaa !3
  store ptr %process, ptr %process.addr, align 8, !tbaa !3
  store double %end, ptr %end.addr, align 8, !tbaa !7
  store i64 %steps, ptr %steps.addr, align 8, !tbaa !9
  %this1 = load ptr, ptr %this.addr, align 8
  %0 = load ptr, ptr %process.addr, align 8, !tbaa !3
  %1 = load double, ptr %end.addr, align 8, !tbaa !7
  %2 = load i64, ptr %steps.addr, align 8, !tbaa !9
  call void @_ZN8QuantLib12BinomialTreeINS_10JarrowRuddEEC2ERKN5boost10shared_ptrINS_19StochasticProcess1DEEEdm(ptr noundef nonnull align 8 dereferenceable(32) %this1, ptr noundef nonnull align 8 dereferenceable(16) %0, double noundef %1, i64 noundef %2)
  ret void
}

; Function Attrs: mustprogress uwtable
define void @_ZN8QuantLib10JarrowRuddC2ERKN5boost10shared_ptrINS_19StochasticProcess1DEEEdmd(ptr noundef nonnull align 8 dereferenceable(40) %this, ptr noundef nonnull align 8 dereferenceable(16) %process, double noundef %end, i64 noundef %steps, double noundef %0) unnamed_addr #4 align 2 {
entry:
  %this.addr = alloca ptr, align 8
  %process.addr = alloca ptr, align 8
  %end.addr = alloca double, align 8
  %steps.addr = alloca i64, align 8
  %.addr = alloca double, align 8
  store ptr %this, ptr %this.addr, align 8, !tbaa !3
  store ptr %process, ptr %process.addr, align 8, !tbaa !3
  store double %end, ptr %end.addr, align 8, !tbaa !7
  store i64 %steps, ptr %steps.addr, align 8, !tbaa !9
  store double %0, ptr %.addr, align 8, !tbaa !7
  %this1 = load ptr, ptr %this.addr, align 8
  %1 = load ptr, ptr %process.addr, align 8, !tbaa !3
  %2 = load double, ptr %end.addr, align 8, !tbaa !7
  %3 = load i64, ptr %steps.addr, align 8, !tbaa !9
  call void @_ZN8QuantLib30EqualProbabilitiesBinomialTreeINS_10JarrowRuddEEC2ERKN5boost10shared_ptrINS_19StochasticProcess1DEEEdm(ptr noundef nonnull align 8 dereferenceable(40) %this1, ptr noundef nonnull align 8 dereferenceable(16) %1, double noundef %2, i64 noundef %3)
  %4 = load ptr, ptr %process.addr, align 8, !tbaa !3
  %call = call noundef ptr @_ZNK5boost10shared_ptrIN8QuantLib19StochasticProcess1DEEptEv(ptr noundef nonnull align 8 dereferenceable(16) %4)
  %x0_ = getelementptr inbounds nuw %"class.QuantLib::BinomialTree", ptr %this1, i32 0, i32 1
  %5 = load double, ptr %x0_, align 8, !tbaa !11
  %dt_ = getelementptr inbounds nuw %"class.QuantLib::BinomialTree", ptr %this1, i32 0, i32 3
  %6 = load double, ptr %dt_, align 8, !tbaa !14
  %vtable = load ptr, ptr %call, align 8, !tbaa !15
  %vfn = getelementptr inbounds ptr, ptr %vtable, i64 19
  %7 = load ptr, ptr %vfn, align 8
  %call2 = call noundef double %7(ptr noundef nonnull align 8 dereferenceable(144) %call, double noundef 0.000000e+00, double noundef %5, double noundef %6)
  %up_ = getelementptr inbounds nuw %"class.QuantLib::EqualProbabilitiesBinomialTree", ptr %this1, i32 0, i32 1
  store double %call2, ptr %up_, align 8, !tbaa !17
  ret void
}