; Function Attrs: mustprogress uwtable
define void @_ZN8QuantLib10JarrowRuddC2ERKN5boost10shared_ptrINS_19StochasticProcess1DEEEdmd(ptr nocapture noundef nonnull align 8 dereferenceable(40) %this, ptr nocapture noundef nonnull readonly align 8 dereferenceable(16) %process, double noundef %end, i64 noundef %steps, double %0) unnamed_addr #3 align 2 {
entry:
  %add.i.i = add i64 %steps, 1
  store i64 %add.i.i, ptr %this, align 8, !tbaa !3
  %x0_.i.i = getelementptr inbounds nuw i8, ptr %this, i64 8
  %1 = load ptr, ptr %process, align 8, !tbaa !8
  %cmp.not.i.i.i = icmp eq ptr %1, null
  br i1 %cmp.not.i.i.i, label %cond.false.i.i.i, label %_ZNK5boost10shared_ptrIN8QuantLib19StochasticProcess1DEEptEv.exit.i.i, !prof !12

cond.false.i.i.i:                                 ; preds = %entry
  tail call void @_ZN5boost16assertion_failedEPKcS1_S1_l(ptr noundef nonnull @.str.8, ptr noundef nonnull @__PRETTY_FUNCTION__._ZNK5boost10shared_ptrIN8QuantLib19StochasticProcess1DEEptEv, ptr noundef nonnull @.str.9, i64 noundef 784)
  %.pre.i.i.i = load ptr, ptr %process, align 8, !tbaa !8
  br label %_ZNK5boost10shared_ptrIN8QuantLib19StochasticProcess1DEEptEv.exit.i.i

_ZNK5boost10shared_ptrIN8QuantLib19StochasticProcess1DEEptEv.exit.i.i: ; preds = %cond.false.i.i.i, %entry
  %2 = phi ptr [ %1, %entry ], [ %.pre.i.i.i, %cond.false.i.i.i ]
  %vtable.i.i = load ptr, ptr %2, align 8, !tbaa !13
  %vfn.i.i = getelementptr inbounds i8, ptr %vtable.i.i, i64 120
  %3 = load ptr, ptr %vfn.i.i, align 8
  %call2.i.i = tail call noundef double %3(ptr noundef nonnull align 8 dereferenceable(144) %2)
  store double %call2.i.i, ptr %x0_.i.i, align 8, !tbaa !15
  %dt_.i.i = getelementptr inbounds nuw i8, ptr %this, i64 24
  %conv.i.i = uitofp i64 %steps to double
  %div.i.i = fdiv double %end, %conv.i.i
  store double %div.i.i, ptr %dt_.i.i, align 8, !tbaa !18
  %4 = load ptr, ptr %process, align 8, !tbaa !8
  %cmp.not.i3.i.i = icmp eq ptr %4, null
  br i1 %cmp.not.i3.i.i, label %cond.false.i4.i.i, label %_ZN8QuantLib30EqualProbabilitiesBinomialTreeINS_10JarrowRuddEEC2ERKN5boost10shared_ptrINS_19StochasticProcess1DEEEdm.exit, !prof !12

cond.false.i4.i.i:                                ; preds = %_ZNK5boost10shared_ptrIN8QuantLib19StochasticProcess1DEEptEv.exit.i.i
  tail call void @_ZN5boost16assertion_failedEPKcS1_S1_l(ptr noundef nonnull @.str.8, ptr noundef nonnull @__PRETTY_FUNCTION__._ZNK5boost10shared_ptrIN8QuantLib19StochasticProcess1DEEptEv, ptr noundef nonnull @.str.9, i64 noundef 784)
  %.pre.i5.i.i = load ptr, ptr %process, align 8, !tbaa !8
  %.pre.i.i = load double, ptr %x0_.i.i, align 8, !tbaa !15
  br label %_ZN8QuantLib30EqualProbabilitiesBinomialTreeINS_10JarrowRuddEEC2ERKN5boost10shared_ptrINS_19StochasticProcess1DEEEdm.exit

_ZN8QuantLib30EqualProbabilitiesBinomialTreeINS_10JarrowRuddEEC2ERKN5boost10shared_ptrINS_19StochasticProcess1DEEEdm.exit: ; preds = %_ZNK5boost10shared_ptrIN8QuantLib19StochasticProcess1DEEptEv.exit.i.i, %cond.false.i4.i.i
  %5 = phi double [ %call2.i.i, %_ZNK5boost10shared_ptrIN8QuantLib19StochasticProcess1DEEptEv.exit.i.i ], [ %.pre.i.i, %cond.false.i4.i.i ]
  %6 = phi ptr [ %4, %_ZNK5boost10shared_ptrIN8QuantLib19StochasticProcess1DEEptEv.exit.i.i ], [ %.pre.i5.i.i, %cond.false.i4.i.i ]
  %vtable5.i.i = load ptr, ptr %6, align 8, !tbaa !13
  %vfn6.i.i = getelementptr inbounds i8, ptr %vtable5.i.i, i64 128
  %7 = load ptr, ptr %vfn6.i.i, align 8
  %call7.i.i = tail call noundef double %7(ptr noundef nonnull align 8 dereferenceable(144) %6, double noundef 0.000000e+00, double noundef %5)
  %8 = load double, ptr %dt_.i.i, align 8, !tbaa !18
  %mul.i.i = fmul double %call7.i.i, %8
  %driftPerStep_.i.i = getelementptr inbounds nuw i8, ptr %this, i64 16
  store double %mul.i.i, ptr %driftPerStep_.i.i, align 8, !tbaa !19
  %9 = load ptr, ptr %process, align 8, !tbaa !8
  %cmp.not.i = icmp eq ptr %9, null
  br i1 %cmp.not.i, label %cond.false.i, label %_ZNK5boost10shared_ptrIN8QuantLib19StochasticProcess1DEEptEv.exit, !prof !12

cond.false.i:                                     ; preds = %_ZN8QuantLib30EqualProbabilitiesBinomialTreeINS_10JarrowRuddEEC2ERKN5boost10shared_ptrINS_19StochasticProcess1DEEEdm.exit
  tail call void @_ZN5boost16assertion_failedEPKcS1_S1_l(ptr noundef nonnull @.str.8, ptr noundef nonnull @__PRETTY_FUNCTION__._ZNK5boost10shared_ptrIN8QuantLib19StochasticProcess1DEEptEv, ptr noundef nonnull @.str.9, i64 noundef 784)
  %.pre.i = load ptr, ptr %process, align 8, !tbaa !8
  %.pre = load double, ptr %dt_.i.i, align 8, !tbaa !18
  br label %_ZNK5boost10shared_ptrIN8QuantLib19StochasticProcess1DEEptEv.exit

_ZNK5boost10shared_ptrIN8QuantLib19StochasticProcess1DEEptEv.exit: ; preds = %_ZN8QuantLib30EqualProbabilitiesBinomialTreeINS_10JarrowRuddEEC2ERKN5boost10shared_ptrINS_19StochasticProcess1DEEEdm.exit, %cond.false.i
  %10 = phi double [ %8, %_ZN8QuantLib30EqualProbabilitiesBinomialTreeINS_10JarrowRuddEEC2ERKN5boost10shared_ptrINS_19StochasticProcess1DEEEdm.exit ], [ %.pre, %cond.false.i ]
  %11 = phi ptr [ %9, %_ZN8QuantLib30EqualProbabilitiesBinomialTreeINS_10JarrowRuddEEC2ERKN5boost10shared_ptrINS_19StochasticProcess1DEEEdm.exit ], [ %.pre.i, %cond.false.i ]
  %12 = load double, ptr %x0_.i.i, align 8, !tbaa !15
  %vtable = load ptr, ptr %11, align 8, !tbaa !13
  %vfn = getelementptr inbounds i8, ptr %vtable, i64 152
  %13 = load ptr, ptr %vfn, align 8
  %call2 = tail call noundef double %13(ptr noundef nonnull align 8 dereferenceable(144) %11, double noundef 0.000000e+00, double noundef %12, double noundef %10)
  %up_ = getelementptr inbounds nuw i8, ptr %this, i64 32
  store double %call2, ptr %up_, align 8, !tbaa !20
  ret void
}